; ModuleID = 'source-C-CXX/52/1495.c'
source_filename = "source-C-CXX/52/1495.c"
target datalayout = "e-m:e-p270:32:32-p271:32:32-p272:64:64-i64:64-f80:128-n8:16:32:64-S128"
target triple = "x86_64-pc-linux-gnu"

@.str = private unnamed_addr constant [3 x i8] c"%d\00", align 1
@.str.1 = private unnamed_addr constant [4 x i8] c"%d,\00", align 1

; Function Attrs: nofree nounwind sspstrong uwtable
define dso_local i32 @main() local_unnamed_addr #0 {
  %1 = alloca [1000 x i32], align 16
  %2 = alloca i32, align 4
  %3 = alloca i32, align 4
  %4 = bitcast [1000 x i32]* %1 to i8*
  call void @llvm.lifetime.start.p0i8(i64 4000, i8* nonnull %4) #3
  %5 = bitcast i32* %2 to i8*
  call void @llvm.lifetime.start.p0i8(i64 4, i8* nonnull %5) #3
  %6 = bitcast i32* %3 to i8*
  call void @llvm.lifetime.start.p0i8(i64 4, i8* nonnull %6) #3
  %7 = call i32 (i8*, ...) @__isoc99_scanf(i8* getelementptr inbounds ([3 x i8], [3 x i8]* @.str, i64 0, i64 0), i32* nonnull %3)
  %8 = load i32, i32* %3, align 4, !tbaa !5
  %9 = icmp sgt i32 %8, 0
  br i1 %9, label %15, label %52

10:                                               ; preds = %40
  %11 = add i32 %41, -1
  %12 = icmp sgt i32 %41, 1
  br i1 %12, label %13, label %52

13:                                               ; preds = %10
  %14 = zext i32 %11 to i64
  br label %45

15:                                               ; preds = %0, %40
  %16 = phi i32 [ %41, %40 ], [ 0, %0 ]
  %17 = phi i32 [ %42, %40 ], [ 0, %0 ]
  %18 = call i32 (i8*, ...) @__isoc99_scanf(i8* getelementptr inbounds ([3 x i8], [3 x i8]* @.str, i64 0, i64 0), i32* nonnull %2)
  %19 = load i32, i32* %2, align 4
  %20 = icmp sgt i32 %16, 0
  br i1 %20, label %21, label %33

21:                                               ; preds = %15
  %22 = zext i32 %16 to i64
  br label %23

23:                                               ; preds = %21, %28
  %24 = phi i64 [ 0, %21 ], [ %29, %28 ]
  %25 = getelementptr inbounds [1000 x i32], [1000 x i32]* %1, i64 0, i64 %24
  %26 = load i32, i32* %25, align 4, !tbaa !5
  %27 = icmp eq i32 %26, %19
  br i1 %27, label %31, label %28

28:                                               ; preds = %23
  %29 = add nuw nsw i64 %24, 1
  %30 = icmp eq i64 %29, %22
  br i1 %30, label %36, label %23, !llvm.loop !9

31:                                               ; preds = %23
  %32 = trunc i64 %24 to i32
  br label %33

33:                                               ; preds = %31, %15
  %34 = phi i32 [ 0, %15 ], [ %32, %31 ]
  %35 = icmp eq i32 %34, %16
  br i1 %35, label %36, label %40

36:                                               ; preds = %28, %33
  %37 = sext i32 %16 to i64
  %38 = getelementptr inbounds [1000 x i32], [1000 x i32]* %1, i64 0, i64 %37
  store i32 %19, i32* %38, align 4, !tbaa !5
  %39 = add nsw i32 %16, 1
  br label %40

40:                                               ; preds = %36, %33
  %41 = phi i32 [ %16, %33 ], [ %39, %36 ]
  %42 = add nuw nsw i32 %17, 1
  %43 = load i32, i32* %3, align 4, !tbaa !5
  %44 = icmp slt i32 %42, %43
  br i1 %44, label %15, label %10, !llvm.loop !11

45:                                               ; preds = %13, %45
  %46 = phi i64 [ 0, %13 ], [ %50, %45 ]
  %47 = getelementptr inbounds [1000 x i32], [1000 x i32]* %1, i64 0, i64 %46
  %48 = load i32, i32* %47, align 4, !tbaa !5
  %49 = call i32 (i8*, ...) @printf(i8* nonnull dereferenceable(1) getelementptr inbounds ([4 x i8], [4 x i8]* @.str.1, i64 0, i64 0), i32 %48)
  %50 = add nuw nsw i64 %46, 1
  %51 = icmp eq i64 %50, %14
  br i1 %51, label %52, label %45, !llvm.loop !12

52:                                               ; preds = %45, %0, %10
  %53 = phi i32 [ %11, %10 ], [ -1, %0 ], [ %11, %45 ]
  %54 = sext i32 %53 to i64
  %55 = getelementptr inbounds [1000 x i32], [1000 x i32]* %1, i64 0, i64 %54
  %56 = load i32, i32* %55, align 4, !tbaa !5
  %57 = call i32 (i8*, ...) @printf(i8* nonnull dereferenceable(1) getelementptr inbounds ([3 x i8], [3 x i8]* @.str, i64 0, i64 0), i32 %56)
  call void @llvm.lifetime.end.p0i8(i64 4, i8* nonnull %6) #3
  call void @llvm.lifetime.end.p0i8(i64 4, i8* nonnull %5) #3
  call void @llvm.lifetime.end.p0i8(i64 4000, i8* nonnull %4) #3
  ret i32 0
}

; Function Attrs: argmemonly mustprogress nofree nosync nounwind willreturn
declare void @llvm.lifetime.start.p0i8(i64 immarg, i8* nocapture) #1

; Function Attrs: nofree nounwind
declare noundef i32 @__isoc99_scanf(i8* nocapture noundef readonly, ...) local_unnamed_addr #2

; Function Attrs: nofree nounwind
declare noundef i32 @printf(i8* nocapture noundef readonly, ...) local_unnamed_addr #2

; Function Attrs: argmemonly mustprogress nofree nosync nounwind willreturn
declare void @llvm.lifetime.end.p0i8(i64 immarg, i8* nocapture) #1


!llvm.module.flags = !{!0, !1, !2, !3}
!llvm.ident = !{!4}

!0 = !{i32 1, !"wchar_size", i32 4}
!1 = !{i32 7, !"PIC Level", i32 2}
!2 = !{i32 7, !"PIE Level", i32 2}
!3 = !{i32 7, !"uwtable", i32 1}
!4 = !{!"clang version 13.0.0"}
!5 = !{!6, !6, i64 0}
!6 = !{!"int", !7, i64 0}
!7 = !{!"omnipotent char", !8, i64 0}
!8 = !{!"Simple C/C++ TBAA"}
!9 = distinct !{!9, !10}
!10 = !{!"llvm.loop.mustprogress"}
!11 = distinct !{!11, !10}
!12 = distinct !{!12, !10}
